ARM GAS  C:\Users\STUDENT\AppData\Local\Temp\ccmDZyjs.s 			page 1


   1              		.syntax unified
   2              		.cpu cortex-m0
   3              		.fpu softvfp
   4              		.eabi_attribute 20, 1
   5              		.eabi_attribute 21, 1
   6              		.eabi_attribute 23, 3
   7              		.eabi_attribute 24, 1
   8              		.eabi_attribute 25, 1
   9              		.eabi_attribute 26, 1
  10              		.eabi_attribute 30, 4
  11              		.eabi_attribute 34, 0
  12              		.eabi_attribute 18, 4
  13              		.thumb
  14              		.syntax unified
  15              		.file	"main.c"
  16              		.text
  17              	.Ltext0:
  18              		.cfi_sections	.debug_frame
  19              		.section	.text.startup.main,"ax",%progbits
  20              		.align	1
  21              		.global	main
  22              		.code	16
  23              		.thumb_func
  24              		.type	main, %function
  25              	main:
  26              	.LFB32:
  27              		.file 1 "main.c"
   1:main.c        **** #include "project.h"
   2:main.c        **** #include <string.h>
   3:main.c        **** 
   4:main.c        **** void (*write_col[3])(uint8) = {COLUMN_0_Write, COLUMN_1_Write, COLUMN_2_Write};
   5:main.c        **** void (*set_col_dm[3])(uint8) = {COLUMN_0_SetDriveMode, COLUMN_1_SetDriveMode, COLUMN_2_SetDriveMode
   6:main.c        **** uint8 (*read_row[4])(void) = {ROW_0_Read, ROW_1_Read, ROW_2_Read, ROW_3_Read};
   7:main.c        **** 
   8:main.c        **** uint8_t key_map[4][3] = {{'1','2','3'},{'4','5','6'},{'7','8','9'},{'*','0','#'}};
   9:main.c        **** char password[] = "123";
  10:main.c        **** char input[10];
  11:main.c        **** uint8_t input_idx = 0;
  12:main.c        **** 
  13:main.c        **** int main(void)
  14:main.c        **** {
  28              		.loc 1 14 0
  29              		.cfi_startproc
  30              		@ args = 0, pretend = 0, frame = 16
  31              		@ frame_needed = 0, uses_anonymous_args = 0
  32 0000 F0B5     		push	{r4, r5, r6, r7, lr}
  33              		.cfi_def_cfa_offset 20
  34              		.cfi_offset 4, -20
  35              		.cfi_offset 5, -16
  36              		.cfi_offset 6, -12
  37              		.cfi_offset 7, -8
  38              		.cfi_offset 14, -4
  39 0002 85B0     		sub	sp, sp, #20
  40              		.cfi_def_cfa_offset 40
  15:main.c        ****     CyGlobalIntEnable;
  41              		.loc 1 15 0
  42              		.syntax divided
ARM GAS  C:\Users\STUDENT\AppData\Local\Temp\ccmDZyjs.s 			page 2


  43              	@ 15 "main.c" 1
  44 0004 62B6     		CPSIE   i
  45              	@ 0 "" 2
  16:main.c        ****     SW_Tx_UART_Start();
  46              		.loc 1 16 0
  47              		.thumb
  48              		.syntax unified
  49 0006 FFF7FEFF 		bl	SW_Tx_UART_Start
  50              	.LVL0:
  51 000a 0025     		movs	r5, #0
  52              	.LVL1:
  53              	.L2:
  54              	.LBB2:
  17:main.c        ****     for(int i = 0; i < 3; i++) set_col_dm[i](COLUMN_0_DM_DIG_HIZ);
  55              		.loc 1 17 0 discriminator 3
  56 000c 3B4C     		ldr	r4, .L22
  57 000e 0120     		movs	r0, #1
  58 0010 2B59     		ldr	r3, [r5, r4]
  59 0012 0435     		adds	r5, r5, #4
  60 0014 9847     		blx	r3
  61              	.LVL2:
  62 0016 0C2D     		cmp	r5, #12
  63 0018 F8D1     		bne	.L2
  64 001a 0023     		movs	r3, #0
  65 001c 0193     		str	r3, [sp, #4]
  66              	.L12:
  67              	.LVL3:
  68              	.LBE2:
  69              	.LBB3:
  70              	.LBB4:
  18:main.c        **** 
  19:main.c        ****     uint8_t last_key = 0;
  20:main.c        **** 
  21:main.c        ****     for(;;)
  22:main.c        ****     {
  23:main.c        ****         uint8_t current_key = 0;
  24:main.c        ****         for(int c = 0; c < 3; c++) {
  71              		.loc 1 24 0
  72 001e 0026     		movs	r6, #0
  73              	.LBE4:
  23:main.c        ****         for(int c = 0; c < 3; c++) {
  74              		.loc 1 23 0
  75 0020 3500     		movs	r5, r6
  76              	.LVL4:
  77              	.L5:
  78 0022 B300     		lsls	r3, r6, #2
  79 0024 0293     		str	r3, [sp, #8]
  80              	.LBB6:
  25:main.c        ****             set_col_dm[c](COLUMN_0_DM_STRONG);
  81              		.loc 1 25 0
  82 0026 E358     		ldr	r3, [r4, r3]
  83 0028 0620     		movs	r0, #6
  84 002a 0393     		str	r3, [sp, #12]
  85 002c 9847     		blx	r3
  86              	.LVL5:
  26:main.c        ****             write_col[c](0);
  87              		.loc 1 26 0
ARM GAS  C:\Users\STUDENT\AppData\Local\Temp\ccmDZyjs.s 			page 3


  88 002e 2300     		movs	r3, r4
  89 0030 B200     		lsls	r2, r6, #2
  90 0032 0C33     		adds	r3, r3, #12
  91 0034 D358     		ldr	r3, [r2, r3]
  92 0036 0020     		movs	r0, #0
  93 0038 9847     		blx	r3
  94              	.LVL6:
  95              	.LBB5:
  27:main.c        ****             for(int r = 0; r < 4; r++) if(read_row[r]() == 0) current_key = key_map[r][c];
  96              		.loc 1 27 0
  97 003a 0027     		movs	r7, #0
  98              	.LVL7:
  99              	.L4:
 100              		.loc 1 27 0 is_stmt 0 discriminator 6
 101 003c 2300     		movs	r3, r4
 102 003e BA00     		lsls	r2, r7, #2
 103 0040 1833     		adds	r3, r3, #24
 104 0042 D358     		ldr	r3, [r2, r3]
 105 0044 9847     		blx	r3
 106              	.LVL8:
 107 0046 0028     		cmp	r0, #0
 108 0048 05D1     		bne	.L3
 109              		.loc 1 27 0 discriminator 2
 110 004a 0322     		movs	r2, #3
 111 004c 2300     		movs	r3, r4
 112 004e 7A43     		muls	r2, r7
 113 0050 2833     		adds	r3, r3, #40
 114 0052 9B19     		adds	r3, r3, r6
 115 0054 9D5C     		ldrb	r5, [r3, r2]
 116              	.LVL9:
 117              	.L3:
 118              		.loc 1 27 0 discriminator 4
 119 0056 0137     		adds	r7, r7, #1
 120              	.LVL10:
 121 0058 042F     		cmp	r7, #4
 122 005a EFD1     		bne	.L4
 123              	.LBE5:
  28:main.c        ****             write_col[c](1);
 124              		.loc 1 28 0 is_stmt 1 discriminator 2
 125 005c 2300     		movs	r3, r4
 126 005e 029A     		ldr	r2, [sp, #8]
 127 0060 0C33     		adds	r3, r3, #12
 128 0062 D358     		ldr	r3, [r2, r3]
 129 0064 0120     		movs	r0, #1
 130 0066 9847     		blx	r3
 131              	.LVL11:
  29:main.c        ****             set_col_dm[c](COLUMN_0_DM_DIG_HIZ);
 132              		.loc 1 29 0 discriminator 2
 133 0068 029B     		ldr	r3, [sp, #8]
 134 006a 0120     		movs	r0, #1
 135 006c E358     		ldr	r3, [r4, r3]
  24:main.c        ****             set_col_dm[c](COLUMN_0_DM_STRONG);
 136              		.loc 1 24 0 discriminator 2
 137 006e 0136     		adds	r6, r6, #1
 138              	.LVL12:
 139              		.loc 1 29 0 discriminator 2
 140 0070 9847     		blx	r3
ARM GAS  C:\Users\STUDENT\AppData\Local\Temp\ccmDZyjs.s 			page 4


 141              	.LVL13:
  24:main.c        ****             set_col_dm[c](COLUMN_0_DM_STRONG);
 142              		.loc 1 24 0 discriminator 2
 143 0072 032E     		cmp	r6, #3
 144 0074 D5D1     		bne	.L5
 145              	.LBE6:
  30:main.c        ****         }
  31:main.c        **** 
  32:main.c        ****         if(current_key != last_key && current_key != 0) {
 146              		.loc 1 32 0
 147 0076 019B     		ldr	r3, [sp, #4]
 148 0078 AB42     		cmp	r3, r5
 149 007a 39D0     		beq	.L6
 150              		.loc 1 32 0 is_stmt 0 discriminator 1
 151 007c 002D     		cmp	r5, #0
 152 007e 37D0     		beq	.L6
 153 0080 1F4E     		ldr	r6, .L22+4
 154              	.LVL14:
  33:main.c        ****             if(current_key == '#') {
 155              		.loc 1 33 0 is_stmt 1
 156 0082 232D     		cmp	r5, #35
 157 0084 2AD1     		bne	.L7
  34:main.c        ****                 input[input_idx] = '\0';
  35:main.c        ****                 if(strcmp(input, password) == 0) {
 158              		.loc 1 35 0
 159 0086 2100     		movs	r1, r4
  34:main.c        ****                 input[input_idx] = '\0';
 160              		.loc 1 34 0
 161 0088 0022     		movs	r2, #0
 162 008a 1E48     		ldr	r0, .L22+8
 163 008c 3378     		ldrb	r3, [r6]
 164              		.loc 1 35 0
 165 008e 3431     		adds	r1, r1, #52
  34:main.c        ****                 input[input_idx] = '\0';
 166              		.loc 1 34 0
 167 0090 C254     		strb	r2, [r0, r3]
 168              		.loc 1 35 0
 169 0092 FFF7FEFF 		bl	strcmp
 170              	.LVL15:
 171 0096 0028     		cmp	r0, #0
 172 0098 0FD1     		bne	.L8
  36:main.c        ****                     SW_Tx_UART_PutString("Access allowed\r\n");
 173              		.loc 1 36 0
 174 009a 1B48     		ldr	r0, .L22+12
 175 009c FFF7FEFF 		bl	SW_Tx_UART_PutString
 176              	.LVL16:
 177 00a0 1A4F     		ldr	r7, .L22+16
 178              	.LVL17:
 179              	.L9:
 180              	.LBB7:
  37:main.c        ****                     for(int i=0; i<999; i++) { LED_RED_Write(1); LED_BLUE_Write(1); }
 181              		.loc 1 37 0 discriminator 3
 182 00a2 0120     		movs	r0, #1
 183 00a4 FFF7FEFF 		bl	LED_RED_Write
 184              	.LVL18:
 185 00a8 013F     		subs	r7, r7, #1
 186              	.LVL19:
ARM GAS  C:\Users\STUDENT\AppData\Local\Temp\ccmDZyjs.s 			page 5


 187 00aa 0120     		movs	r0, #1
 188 00ac FFF7FEFF 		bl	LED_BLUE_Write
 189              	.LVL20:
 190 00b0 002F     		cmp	r7, #0
 191 00b2 F6D1     		bne	.L9
 192              	.L11:
 193              	.LBE7:
  38:main.c        ****                 } else {
  39:main.c        ****                     SW_Tx_UART_PutString("Access denied\r\n");
  40:main.c        ****                     for(int i=0; i<999; i++) { LED_GREEN_Write(1); LED_BLUE_Write(1); LED_RED_Write
  41:main.c        ****                 }
  42:main.c        ****                 input_idx = 0;
 194              		.loc 1 42 0
 195 00b4 0023     		movs	r3, #0
 196 00b6 3370     		strb	r3, [r6]
 197 00b8 1AE0     		b	.L6
 198              	.LVL21:
 199              	.L8:
  39:main.c        ****                     for(int i=0; i<999; i++) { LED_GREEN_Write(1); LED_BLUE_Write(1); LED_RED_Write
 200              		.loc 1 39 0
 201 00ba 1548     		ldr	r0, .L22+20
 202 00bc FFF7FEFF 		bl	SW_Tx_UART_PutString
 203              	.LVL22:
 204 00c0 124F     		ldr	r7, .L22+16
 205              	.LVL23:
 206              	.L10:
 207              	.LBB8:
  40:main.c        ****                 }
 208              		.loc 1 40 0 discriminator 3
 209 00c2 0120     		movs	r0, #1
 210 00c4 FFF7FEFF 		bl	LED_GREEN_Write
 211              	.LVL24:
 212 00c8 0120     		movs	r0, #1
 213 00ca FFF7FEFF 		bl	LED_BLUE_Write
 214              	.LVL25:
 215 00ce 013F     		subs	r7, r7, #1
 216              	.LVL26:
 217 00d0 0020     		movs	r0, #0
 218 00d2 FFF7FEFF 		bl	LED_RED_Write
 219              	.LVL27:
 220 00d6 002F     		cmp	r7, #0
 221 00d8 F3D1     		bne	.L10
 222 00da EBE7     		b	.L11
 223              	.LVL28:
 224              	.L7:
 225              	.LBE8:
  43:main.c        ****             } else if(input_idx < 9) {
 226              		.loc 1 43 0
 227 00dc 3378     		ldrb	r3, [r6]
 228 00de 082B     		cmp	r3, #8
 229 00e0 06D8     		bhi	.L6
  44:main.c        ****                 input[input_idx++] = current_key;
 230              		.loc 1 44 0
 231 00e2 5A1C     		adds	r2, r3, #1
 232 00e4 3270     		strb	r2, [r6]
 233 00e6 074A     		ldr	r2, .L22+8
  45:main.c        ****                 SW_Tx_UART_PutChar('*');
ARM GAS  C:\Users\STUDENT\AppData\Local\Temp\ccmDZyjs.s 			page 6


 234              		.loc 1 45 0
 235 00e8 2A20     		movs	r0, #42
  44:main.c        ****                 input[input_idx++] = current_key;
 236              		.loc 1 44 0
 237 00ea D554     		strb	r5, [r2, r3]
 238              		.loc 1 45 0
 239 00ec FFF7FEFF 		bl	SW_Tx_UART_PutChar
 240              	.LVL29:
 241              	.L6:
  46:main.c        ****             }
  47:main.c        ****         }
  48:main.c        ****         last_key = current_key;
  49:main.c        ****         CyDelay(50);
 242              		.loc 1 49 0
 243 00f0 3220     		movs	r0, #50
 244 00f2 FFF7FEFF 		bl	CyDelay
 245              	.LVL30:
 246              	.LBE3:
  50:main.c        ****     }
 247              		.loc 1 50 0
 248 00f6 0195     		str	r5, [sp, #4]
 249 00f8 91E7     		b	.L12
 250              	.L23:
 251 00fa C046     		.align	2
 252              	.L22:
 253 00fc 00000000 		.word	.LANCHOR0
 254 0100 00000000 		.word	.LANCHOR1
 255 0104 00000000 		.word	input
 256 0108 00000000 		.word	.LC6
 257 010c E7030000 		.word	999
 258 0110 11000000 		.word	.LC8
 259              		.cfi_endproc
 260              	.LFE32:
 261              		.size	main, .-main
 262              		.global	input_idx
 263              		.comm	input,10,1
 264              		.global	password
 265              		.global	key_map
 266              		.global	read_row
 267              		.global	set_col_dm
 268              		.global	write_col
 269              		.section	.rodata.str1.1,"aMS",%progbits,1
 270              	.LC6:
 271 0000 41636365 		.ascii	"Access allowed\015\012\000"
 271      73732061 
 271      6C6C6F77 
 271      65640D0A 
 271      00
 272              	.LC8:
 273 0011 41636365 		.ascii	"Access denied\015\012\000"
 273      73732064 
 273      656E6965 
 273      640D0A00 
 274              		.data
 275              		.align	2
 276              		.set	.LANCHOR0,. + 0
 277              		.type	set_col_dm, %object
ARM GAS  C:\Users\STUDENT\AppData\Local\Temp\ccmDZyjs.s 			page 7


 278              		.size	set_col_dm, 12
 279              	set_col_dm:
 280 0000 00000000 		.word	COLUMN_0_SetDriveMode
 281 0004 00000000 		.word	COLUMN_1_SetDriveMode
 282 0008 00000000 		.word	COLUMN_2_SetDriveMode
 283              		.type	write_col, %object
 284              		.size	write_col, 12
 285              	write_col:
 286 000c 00000000 		.word	COLUMN_0_Write
 287 0010 00000000 		.word	COLUMN_1_Write
 288 0014 00000000 		.word	COLUMN_2_Write
 289              		.type	read_row, %object
 290              		.size	read_row, 16
 291              	read_row:
 292 0018 00000000 		.word	ROW_0_Read
 293 001c 00000000 		.word	ROW_1_Read
 294 0020 00000000 		.word	ROW_2_Read
 295 0024 00000000 		.word	ROW_3_Read
 296              		.type	key_map, %object
 297              		.size	key_map, 12
 298              	key_map:
 299 0028 31       		.byte	49
 300 0029 32       		.byte	50
 301 002a 33       		.byte	51
 302 002b 34       		.byte	52
 303 002c 35       		.byte	53
 304 002d 36       		.byte	54
 305 002e 37       		.byte	55
 306 002f 38       		.byte	56
 307 0030 39       		.byte	57
 308 0031 2A       		.byte	42
 309 0032 30       		.byte	48
 310 0033 23       		.byte	35
 311              		.type	password, %object
 312              		.size	password, 4
 313              	password:
 314 0034 31323300 		.ascii	"123\000"
 315              		.bss
 316              		.set	.LANCHOR1,. + 0
 317              		.type	input_idx, %object
 318              		.size	input_idx, 1
 319              	input_idx:
 320 0000 00       		.space	1
 321              		.text
 322              	.Letext0:
 323              		.file 2 "c:\\program files (x86)\\cypress\\psoc creator\\4.4\\psoc creator\\import\\gnu\\arm\\5.4.
 324              		.file 3 "c:\\program files (x86)\\cypress\\psoc creator\\4.4\\psoc creator\\import\\gnu\\arm\\5.4.
 325              		.file 4 "Generated_Source\\PSoC4/cytypes.h"
 326              		.file 5 "Generated_Source\\PSoC4/LED_RED.h"
 327              		.file 6 "Generated_Source\\PSoC4/LED_BLUE.h"
 328              		.file 7 "Generated_Source\\PSoC4/LED_GREEN.h"
 329              		.file 8 "c:\\program files (x86)\\cypress\\psoc creator\\4.4\\psoc creator\\import\\gnu\\arm\\5.4.
 330              		.file 9 "Generated_Source\\PSoC4/SW_Tx_UART.h"
 331              		.file 10 "Generated_Source\\PSoC4/CyLib.h"